target datalayout = "e-m:e-p270:32:32-p271:32:32-p272:64:64-i64:64-i128:128-f80:128-n8:16:32:64-S128"
target triple = "x86_64-pc-linux-gnu"

%struct._zend_refcounted_h = type { i32, %union.anon }
%union.anon = type { i32 }
%struct._zend_string = type { %struct._zend_refcounted_h, i64, i64, [1 x i8] }
%struct._zend_execute_data = type { ptr, ptr, ptr, ptr, %struct._zval_struct, ptr, ptr, ptr, ptr }
%struct._zval_struct = type { %union._zend_value, %union.anon.0, %union.anon.3 }
%union._zend_value = type { i64 }
%union.anon.0 = type { i32 }
%union.anon.3 = type { i32 }

@php_base64_encode = ifunc ptr (ptr, i64), ptr @resolve_base64_encode

; Function Attrs: nounwind uwtable
define hidden void @zif_base64_encode(ptr noundef %0, ptr noundef %1) #6 {
  %3 = alloca ptr, align 8
  %4 = alloca ptr, align 8
  %5 = alloca i1, align 1
  %6 = alloca ptr, align 8
  %7 = alloca ptr, align 8
  %8 = alloca i8, align 1
  %9 = alloca i32, align 4
  %10 = alloca i8, align 1
  %11 = alloca ptr, align 8
  %12 = alloca ptr, align 8
  %13 = alloca i8, align 1
  %14 = alloca i32, align 4
  %15 = alloca i32, align 4
  %16 = alloca i1, align 1
  %17 = alloca ptr, align 8
  %18 = alloca ptr, align 8
  %19 = alloca ptr, align 8
  %20 = alloca i8, align 1
  %21 = alloca i32, align 4
  %22 = alloca ptr, align 8
  %23 = alloca ptr, align 8
  %24 = alloca ptr, align 8
  %25 = alloca ptr, align 8
  %26 = alloca i64, align 8
  %27 = alloca ptr, align 8
  %28 = alloca i32, align 4
  %29 = alloca i32, align 4
  %30 = alloca i32, align 4
  %31 = alloca i32, align 4
  %32 = alloca i32, align 4
  %33 = alloca ptr, align 8
  %34 = alloca ptr, align 8
  %35 = alloca i32, align 4
  %36 = alloca ptr, align 8
  %37 = alloca i8, align 1
  %38 = alloca i8, align 1
  %39 = alloca i32, align 4
  %40 = alloca ptr, align 8
  %41 = alloca ptr, align 8
  store ptr %0, ptr %23, align 8
  store ptr %1, ptr %24, align 8
  br label %42

42:                                               ; preds = %2
  store i32 0, ptr %28, align 4
  store i32 1, ptr %29, align 4
  store i32 1, ptr %30, align 4
  %43 = load ptr, ptr %23, align 8
  %44 = getelementptr inbounds %struct._zend_execute_data, ptr %43, i32 0, i32 4
  %45 = getelementptr inbounds %struct._zval_struct, ptr %44, i32 0, i32 2
  %46 = load i32, ptr %45, align 4
  store i32 %46, ptr %31, align 4
  store i32 0, ptr %32, align 4
  store ptr null, ptr %34, align 8
  store i32 0, ptr %35, align 4
  store ptr null, ptr %36, align 8
  store i8 0, ptr %37, align 1
  store i8 0, ptr %38, align 1
  store i32 0, ptr %39, align 4
  br label %47

47:                                               ; preds = %42
  %48 = load i32, ptr %31, align 4
  %49 = load i32, ptr %29, align 4
  %50 = icmp ult i32 %48, %49
  %51 = xor i1 %50, true
  %52 = xor i1 %51, true
  %53 = zext i1 %52 to i32
  %54 = sext i32 %53 to i64
  %55 = icmp ne i64 %54, 0
  br i1 %55, label %65, label %56

56:                                               ; preds = %47
  %57 = load i32, ptr %31, align 4
  %58 = load i32, ptr %30, align 4
  %59 = icmp ugt i32 %57, %58
  %60 = xor i1 %59, true
  %61 = xor i1 %60, true
  %62 = zext i1 %61 to i32
  %63 = sext i32 %62 to i64
  %64 = icmp ne i64 %63, 0
  br i1 %64, label %65, label %68

65:                                               ; preds = %56, %47
  %66 = load i32, ptr %29, align 4
  %67 = load i32, ptr %30, align 4
  call void @zend_wrong_parameters_count_error(i32 noundef %66, i32 noundef %67)
  store i32 1, ptr %39, align 4
  br label %199

68:                                               ; preds = %56
  %69 = load ptr, ptr %23, align 8
  %70 = getelementptr inbounds %struct._zval_struct, ptr %69, i64 4
  store ptr %70, ptr %33, align 8
  %71 = load i32, ptr %32, align 4
  %72 = add i32 %71, 1
  store i32 %72, ptr %32, align 4
  %73 = load i32, ptr %32, align 4
  %74 = load i32, ptr %29, align 4
  %75 = icmp ule i32 %73, %74
  br i1 %75, label %81, label %76

76:                                               ; preds = %68
  %77 = load i8, ptr %38, align 1
  %78 = trunc i8 %77 to i1
  %79 = zext i1 %78 to i32
  %80 = icmp eq i32 %79, 1
  br label %81

81:                                               ; preds = %76, %68
  %82 = phi i1 [ true, %68 ], [ %80, %76 ]
  call void @llvm.assume(i1 %82)
  %83 = load i32, ptr %32, align 4
  %84 = load i32, ptr %29, align 4
  %85 = icmp ugt i32 %83, %84
  br i1 %85, label %91, label %86

86:                                               ; preds = %81
  %87 = load i8, ptr %38, align 1
  %88 = trunc i8 %87 to i1
  %89 = zext i1 %88 to i32
  %90 = icmp eq i32 %89, 0
  br label %91

91:                                               ; preds = %86, %81
  %92 = phi i1 [ true, %81 ], [ %90, %86 ]
  call void @llvm.assume(i1 %92)
  %93 = load i8, ptr %38, align 1
  %94 = trunc i8 %93 to i1
  br i1 %94, label %95, label %106

95:                                               ; preds = %91
  %96 = load i32, ptr %32, align 4
  %97 = load i32, ptr %31, align 4
  %98 = icmp ugt i32 %96, %97
  %99 = xor i1 %98, true
  %100 = xor i1 %99, true
  %101 = zext i1 %100 to i32
  %102 = sext i32 %101 to i64
  %103 = icmp ne i64 %102, 0
  br i1 %103, label %104, label %105

104:                                              ; preds = %95
  br label %199

105:                                              ; preds = %95
  br label %106

106:                                              ; preds = %105, %91
  %107 = load ptr, ptr %33, align 8
  %108 = getelementptr inbounds %struct._zval_struct, ptr %107, i32 1
  store ptr %108, ptr %33, align 8
  %109 = load ptr, ptr %33, align 8
  store ptr %109, ptr %34, align 8
  %110 = load ptr, ptr %34, align 8
  %111 = load i32, ptr %32, align 4
  store ptr %110, ptr %17, align 8
  store ptr %25, ptr %18, align 8
  store ptr %26, ptr %19, align 8
  store i8 0, ptr %20, align 1
  store i32 %111, ptr %21, align 4
  %112 = load ptr, ptr %17, align 8
  %113 = load i8, ptr %20, align 1
  %114 = trunc i8 %113 to i1
  %115 = load i32, ptr %21, align 4
  store ptr %112, ptr %11, align 8
  store ptr %22, ptr %12, align 8
  %116 = zext i1 %114 to i8
  store i8 %116, ptr %13, align 1
  store i32 %115, ptr %14, align 4
  %117 = load ptr, ptr %11, align 8
  %118 = load ptr, ptr %12, align 8
  %119 = load i8, ptr %13, align 1
  %120 = trunc i8 %119 to i1
  %121 = load i32, ptr %14, align 4
  store ptr %117, ptr %6, align 8
  store ptr %118, ptr %7, align 8
  %122 = zext i1 %120 to i8
  store i8 %122, ptr %8, align 1
  store i32 %121, ptr %9, align 4
  store i8 0, ptr %10, align 1
  %123 = load ptr, ptr %6, align 8
  store ptr %123, ptr %3, align 8
  %124 = load ptr, ptr %3, align 8
  %125 = getelementptr inbounds %struct._zval_struct, ptr %124, i32 0, i32 1
  %126 = load i8, ptr %125, align 8
  %127 = zext i8 %126 to i32
  %128 = icmp eq i32 %127, 6
  br i1 %128, label %129, label %133

129:                                              ; preds = %106
  %130 = load ptr, ptr %6, align 8
  %131 = load ptr, ptr %130, align 8
  %132 = load ptr, ptr %7, align 8
  store ptr %131, ptr %132, align 8
  br label %158

133:                                              ; preds = %106
  %134 = load i8, ptr %8, align 1
  %135 = trunc i8 %134 to i1
  br i1 %135, label %136, label %145

136:                                              ; preds = %133
  %137 = load ptr, ptr %6, align 8
  store ptr %137, ptr %4, align 8
  %138 = load ptr, ptr %4, align 8
  %139 = getelementptr inbounds %struct._zval_struct, ptr %138, i32 0, i32 1
  %140 = load i8, ptr %139, align 8
  %141 = zext i8 %140 to i32
  %142 = icmp eq i32 %141, 1
  br i1 %142, label %143, label %145

143:                                              ; preds = %136
  %144 = load ptr, ptr %7, align 8
  store ptr null, ptr %144, align 8
  br label %158

145:                                              ; preds = %136, %133
  %146 = load i8, ptr %10, align 1
  %147 = trunc i8 %146 to i1
  br i1 %147, label %148, label %153

148:                                              ; preds = %145
  %149 = load ptr, ptr %6, align 8
  %150 = load ptr, ptr %7, align 8
  %151 = load i32, ptr %9, align 4
  %152 = call zeroext i1 @zend_flf_parse_arg_str_slow(ptr noundef %149, ptr noundef %150, i32 noundef %151) #13
  store i1 %152, ptr %5, align 1
  br label %159

153:                                              ; preds = %145
  %154 = load ptr, ptr %6, align 8
  %155 = load ptr, ptr %7, align 8
  %156 = load i32, ptr %9, align 4
  %157 = call zeroext i1 @zend_parse_arg_str_slow(ptr noundef %154, ptr noundef %155, i32 noundef %156) #13
  store i1 %157, ptr %5, align 1
  br label %159

158:                                              ; preds = %143, %129
  store i1 true, ptr %5, align 1
  br label %159

159:                                              ; preds = %158, %153, %148
  %160 = load i1, ptr %5, align 1
  br i1 %160, label %162, label %161

161:                                              ; preds = %159
  store i1 false, ptr %16, align 1
  br label %181

162:                                              ; preds = %159
  %163 = load i8, ptr %20, align 1
  %164 = trunc i8 %163 to i1
  br i1 %164, label %165, label %172

165:                                              ; preds = %162
  %166 = load ptr, ptr %22, align 8
  %167 = icmp ne ptr %166, null
  %168 = xor i1 %167, true
  br i1 %168, label %169, label %172

169:                                              ; preds = %165
  %170 = load ptr, ptr %18, align 8
  store ptr null, ptr %170, align 8
  %171 = load ptr, ptr %19, align 8
  store i64 0, ptr %171, align 8
  br label %180

172:                                              ; preds = %165, %162
  %173 = load ptr, ptr %22, align 8
  %174 = getelementptr inbounds %struct._zend_string, ptr %173, i32 0, i32 3
  %175 = load ptr, ptr %18, align 8
  store ptr %174, ptr %175, align 8
  %176 = load ptr, ptr %22, align 8
  %177 = getelementptr inbounds %struct._zend_string, ptr %176, i32 0, i32 2
  %178 = load i64, ptr %177, align 8
  %179 = load ptr, ptr %19, align 8
  store i64 %178, ptr %179, align 8
  br label %180

180:                                              ; preds = %172, %169
  store i1 true, ptr %16, align 1
  br label %181

181:                                              ; preds = %180, %161
  %182 = load i1, ptr %16, align 1
  %183 = xor i1 %182, true
  %184 = xor i1 %183, true
  %185 = xor i1 %184, true
  %186 = zext i1 %185 to i32
  %187 = sext i32 %186 to i64
  %188 = icmp ne i64 %187, 0
  br i1 %188, label %189, label %190

189:                                              ; preds = %181
  store i32 4, ptr %35, align 4
  store i32 9, ptr %39, align 4
  br label %199

190:                                              ; preds = %181
  %191 = load i32, ptr %32, align 4
  %192 = load i32, ptr %30, align 4
  %193 = icmp eq i32 %191, %192
  br i1 %193, label %197, label %194

194:                                              ; preds = %190
  %195 = load i32, ptr %30, align 4
  %196 = icmp eq i32 %195, -1
  br label %197

197:                                              ; preds = %194, %190
  %198 = phi i1 [ true, %190 ], [ %196, %194 ]
  call void @llvm.assume(i1 %198)
  br label %199

199:                                              ; preds = %197, %189, %104, %65
  %200 = load i32, ptr %39, align 4
  %201 = icmp ne i32 %200, 0
  %202 = xor i1 %201, true
  %203 = xor i1 %202, true
  %204 = zext i1 %203 to i32
  %205 = sext i32 %204 to i64
  %206 = icmp ne i64 %205, 0
  br i1 %206, label %207, label %213

207:                                              ; preds = %199
  %208 = load i32, ptr %39, align 4
  %209 = load i32, ptr %32, align 4
  %210 = load ptr, ptr %36, align 8
  %211 = load i32, ptr %35, align 4
  %212 = load ptr, ptr %34, align 8
  call void @zend_wrong_parameter_error(i32 noundef %208, i32 noundef %209, ptr noundef %210, i32 noundef %211, ptr noundef %212)
  br label %237

213:                                              ; preds = %199
  br label %214

214:                                              ; preds = %213
  %215 = load ptr, ptr %25, align 8
  %216 = load i64, ptr %26, align 8
  %217 = call ptr @php_base64_encode(ptr noundef %215, i64 noundef %216)
  store ptr %217, ptr %27, align 8
  br label %218

218:                                              ; preds = %214
  br label %219

219:                                              ; preds = %218
  %220 = load ptr, ptr %24, align 8
  store ptr %220, ptr %40, align 8
  %221 = load ptr, ptr %27, align 8
  store ptr %221, ptr %41, align 8
  %222 = load ptr, ptr %41, align 8
  %223 = load ptr, ptr %40, align 8
  %224 = getelementptr inbounds %struct._zval_struct, ptr %223, i32 0, i32 0
  store ptr %222, ptr %224, align 8
  %225 = load ptr, ptr %41, align 8
  %226 = getelementptr inbounds %struct._zend_string, ptr %225, i32 0, i32 0
  %227 = getelementptr inbounds %struct._zend_refcounted_h, ptr %226, i32 0, i32 1
  %228 = load i32, ptr %227, align 4
  store i32 %228, ptr %15, align 4
  %229 = load i32, ptr %15, align 4
  %230 = and i32 %229, 1008
  %231 = and i32 %230, 64
  %232 = icmp ne i32 %231, 0
  %233 = select i1 %232, i32 6, i32 262
  %234 = load ptr, ptr %40, align 8
  %235 = getelementptr inbounds %struct._zval_struct, ptr %234, i32 0, i32 1
  store i32 %233, ptr %235, align 8
  br label %236

236:                                              ; preds = %219
  br label %237

237:                                              ; preds = %236, %207
  ret void
}