; Function Attrs: nounwind uwtable
define hidden void @zif_base64_encode(ptr noundef %0, ptr nocapture noundef writeonly %1) local_unnamed_addr #6 {
  %3 = alloca ptr, align 8
  %4 = getelementptr inbounds i8, ptr %0, i64 44
  %5 = load i32, ptr %4, align 4
  %cond = icmp eq i32 %5, 1
  br i1 %cond, label %6, label %.thread84

.thread84:                                        ; preds = %2
  tail call void @zend_wrong_parameters_count_error(i32 noundef 1, i32 noundef 1) #10
  br label %14

6:                                                ; preds = %2
  %7 = getelementptr inbounds i8, ptr %0, i64 80
  %8 = getelementptr inbounds i8, ptr %0, i64 88
  %9 = load i8, ptr %8, align 8
  %10 = icmp eq i8 %9, 6
  br i1 %10, label %.thread, label %12

.thread:                                          ; preds = %6
  %11 = load ptr, ptr %7, align 8
  store ptr %11, ptr %3, align 8
  br label %15

12:                                               ; preds = %6
  %13 = call zeroext i1 @zend_parse_arg_str_slow(ptr noundef nonnull %7, ptr noundef nonnull %3, i32 noundef 1) #10
  br i1 %13, label %._crit_edge, label %14

._crit_edge:                                      ; preds = %12
  %.pre = load ptr, ptr %3, align 8
  br label %15

14:                                               ; preds = %12, %.thread84
  %.06795 = phi i32 [ 1, %.thread84 ], [ 9, %12 ]
  %.06894 = phi i32 [ 0, %.thread84 ], [ 1, %12 ]
  %.06993 = phi ptr [ null, %.thread84 ], [ %7, %12 ]
  %.07092 = phi i32 [ 0, %.thread84 ], [ 4, %12 ]
  call void @zend_wrong_parameter_error(i32 noundef %.06795, i32 noundef %.06894, ptr noundef null, i32 noundef %.07092, ptr noundef %.06993) #10
  br label %26

15:                                               ; preds = %._crit_edge, %.thread
  %16 = phi ptr [ %.pre, %._crit_edge ], [ %11, %.thread ]
  %17 = getelementptr inbounds i8, ptr %16, i64 16
  %18 = load i64, ptr %17, align 8
  %19 = getelementptr inbounds i8, ptr %16, i64 24
  %20 = call ptr @php_base64_encode(ptr noundef nonnull %19, i64 noundef %18) #10
  store ptr %20, ptr %1, align 8
  %21 = getelementptr inbounds i8, ptr %20, i64 4
  %22 = load i32, ptr %21, align 4
  %23 = and i32 %22, 64
  %.not78 = icmp eq i32 %23, 0
  %24 = select i1 %.not78, i32 262, i32 6
  %25 = getelementptr inbounds i8, ptr %1, i64 8
  store i32 %24, ptr %25, align 8
  br label %26

26:                                               ; preds = %15, %14
  ret void
}